target datalayout = "e-m:e-p270:32:32-p271:32:32-p272:64:64-i64:64-i128:128-f80:128-n8:16:32:64-S128"
target triple = "x86_64-pc-linux-gnu"

%struct._lv_obj_t = type { ptr, ptr, ptr, ptr, ptr, %struct.lv_area_t, i32, i16, i16 }
%struct.lv_area_t = type { i32, i32, i32, i32 }

; Function Attrs: nounwind uwtable
define internal zeroext i1 @obj_is_focusable(ptr noundef %0) #0 {
  %2 = alloca i1, align 1
  %3 = alloca ptr, align 8
  store ptr %0, ptr %3, align 8, !tbaa !3
  %4 = load ptr, ptr %3, align 8, !tbaa !3
  %5 = call zeroext i1 @lv_obj_has_flag(ptr noundef %4, i32 noundef 1)
  br i1 %5, label %6, label %7

6:                                                ; preds = %1
  store i1 false, ptr %2, align 1
  br label %12

7:                                                ; preds = %1
  %8 = load ptr, ptr %3, align 8, !tbaa !3
  %9 = call zeroext i1 @lv_obj_has_flag(ptr noundef %8, i32 noundef 6)
  br i1 %9, label %10, label %11

10:                                               ; preds = %7
  store i1 true, ptr %2, align 1
  br label %12

11:                                               ; preds = %7
  store i1 false, ptr %2, align 1
  br label %12

12:                                               ; preds = %11, %10, %6
  %13 = load i1, ptr %2, align 1
  ret i1 %13
}

; Function Attrs: nounwind uwtable
define internal i32 @get_y_center(ptr noundef %0) #0 {
  %2 = alloca ptr, align 8
  store ptr %0, ptr %2, align 8, !tbaa !3
  %3 = load ptr, ptr %2, align 8, !tbaa !3
  %4 = getelementptr inbounds nuw %struct._lv_obj_t, ptr %3, i32 0, i32 5
  %5 = getelementptr inbounds nuw %struct.lv_area_t, ptr %4, i32 0, i32 1
  %6 = load i32, ptr %5, align 4, !tbaa !23
  %7 = load ptr, ptr %2, align 8, !tbaa !3
  %8 = getelementptr inbounds nuw %struct._lv_obj_t, ptr %7, i32 0, i32 5
  %9 = call i32 @lv_area_get_height(ptr noundef %8)
  %10 = sdiv i32 %9, 2
  %11 = add nsw i32 %6, %10
  ret i32 %11
}

; Function Attrs: nounwind uwtable
define internal i32 @get_x_center(ptr noundef %0) #0 {
  %2 = alloca ptr, align 8
  store ptr %0, ptr %2, align 8, !tbaa !3
  %3 = load ptr, ptr %2, align 8, !tbaa !3
  %4 = getelementptr inbounds nuw %struct._lv_obj_t, ptr %3, i32 0, i32 5
  %5 = getelementptr inbounds nuw %struct.lv_area_t, ptr %4, i32 0, i32 0
  %6 = load i32, ptr %5, align 8, !tbaa !22
  %7 = load ptr, ptr %2, align 8, !tbaa !3
  %8 = getelementptr inbounds nuw %struct._lv_obj_t, ptr %7, i32 0, i32 5
  %9 = call i32 @lv_area_get_width(ptr noundef %8)
  %10 = sdiv i32 %9, 2
  %11 = add nsw i32 %6, %10
  ret i32 %11
}

; Function Attrs: nounwind uwtable
define internal ptr @find_chid(ptr noundef %0, ptr noundef %1, i32 noundef %2) #0 {
  %4 = alloca ptr, align 8
  %5 = alloca ptr, align 8
  %6 = alloca i32, align 4
  %7 = alloca i32, align 4
  %8 = alloca i32, align 4
  %9 = alloca i32, align 4
  %10 = alloca ptr, align 8
  %11 = alloca i32, align 4
  %12 = alloca i32, align 4
  %13 = alloca i32, align 4
  %14 = alloca i32, align 4
  %15 = alloca i32, align 4
  %16 = alloca ptr, align 8
  %17 = alloca i32, align 4
  %18 = alloca i32, align 4
  %19 = alloca i32, align 4
  store ptr %0, ptr %4, align 8, !tbaa !3
  store ptr %1, ptr %5, align 8, !tbaa !3
  store i32 %2, ptr %6, align 4, !tbaa !7
  call void @llvm.lifetime.start.p0(i64 4, ptr %7) #3
  %20 = load ptr, ptr %5, align 8, !tbaa !3
  %21 = call i32 @get_x_center(ptr noundef %20)
  store i32 %21, ptr %7, align 4, !tbaa !7
  call void @llvm.lifetime.start.p0(i64 4, ptr %8) #3
  %22 = load ptr, ptr %5, align 8, !tbaa !3
  %23 = call i32 @get_y_center(ptr noundef %22)
  store i32 %23, ptr %8, align 4, !tbaa !7
  call void @llvm.lifetime.start.p0(i64 4, ptr %9) #3
  %24 = load ptr, ptr %4, align 8, !tbaa !3
  %25 = call i32 @lv_obj_get_child_count(ptr noundef %24)
  store i32 %25, ptr %9, align 4, !tbaa !7
  call void @llvm.lifetime.start.p0(i64 8, ptr %10) #3
  store ptr null, ptr %10, align 8, !tbaa !3
  call void @llvm.lifetime.start.p0(i64 4, ptr %11) #3
  store i32 536870911, ptr %11, align 4, !tbaa !7
  call void @llvm.lifetime.start.p0(i64 4, ptr %12) #3
  store i32 536870911, ptr %12, align 4, !tbaa !7
  call void @llvm.lifetime.start.p0(i64 4, ptr %13) #3
  %26 = load ptr, ptr %5, align 8, !tbaa !3
  %27 = call i32 @lv_obj_get_height(ptr noundef %26)
  %28 = sdiv i32 %27, 2
  store i32 %28, ptr %13, align 4, !tbaa !7
  call void @llvm.lifetime.start.p0(i64 4, ptr %14) #3
  %29 = load ptr, ptr %4, align 8, !tbaa !3
  %30 = call i32 @lv_obj_get_height(ptr noundef %29)
  %31 = load ptr, ptr %4, align 8, !tbaa !3
  %32 = call i32 @lv_obj_get_scroll_top(ptr noundef %31)
  %33 = add nsw i32 %30, %32
  %34 = load ptr, ptr %4, align 8, !tbaa !3
  %35 = call i32 @lv_obj_get_scroll_bottom(ptr noundef %34)
  %36 = add nsw i32 %33, %35
  store i32 %36, ptr %14, align 4, !tbaa !7
  call void @llvm.lifetime.start.p0(i64 4, ptr %15) #3
  store i32 0, ptr %15, align 4, !tbaa !7
  br label %37

37:                                               ; preds = %208, %3
  %38 = load i32, ptr %15, align 4, !tbaa !7
  %39 = load i32, ptr %9, align 4, !tbaa !7
  %40 = icmp ult i32 %38, %39
  br i1 %40, label %41, label %211

41:                                               ; preds = %37
  call void @llvm.lifetime.start.p0(i64 8, ptr %16) #3
  %42 = load ptr, ptr %4, align 8, !tbaa !3
  %43 = load i32, ptr %15, align 4, !tbaa !7
  %44 = call ptr @lv_obj_get_child(ptr noundef %42, i32 noundef %43)
  store ptr %44, ptr %16, align 8, !tbaa !3
  %45 = load ptr, ptr %16, align 8, !tbaa !3
  %46 = load ptr, ptr %5, align 8, !tbaa !3
  %47 = icmp eq ptr %45, %46
  br i1 %47, label %48, label %49

48:                                               ; preds = %41
  store i32 4, ptr %17, align 4
  br label %205

49:                                               ; preds = %41
  %50 = load ptr, ptr %16, align 8, !tbaa !3
  %51 = call zeroext i1 @obj_is_focusable(ptr noundef %50)
  %52 = zext i1 %51 to i32
  %53 = icmp eq i32 %52, 0
  br i1 %53, label %54, label %55

54:                                               ; preds = %49
  store i32 4, ptr %17, align 4
  br label %205

55:                                               ; preds = %49
  call void @llvm.lifetime.start.p0(i64 4, ptr %18) #3
  store i32 0, ptr %18, align 4, !tbaa !7
  call void @llvm.lifetime.start.p0(i64 4, ptr %19) #3
  store i32 0, ptr %19, align 4, !tbaa !7
  %56 = load i32, ptr %6, align 4, !tbaa !7
  switch i32 %56, label %180 [
    i32 0, label %57
    i32 1, label %83
    i32 2, label %109
    i32 3, label %122
    i32 4, label %135
    i32 5, label %146
    i32 6, label %164
    i32 7, label %171
  ]

57:                                               ; preds = %55
  %58 = load ptr, ptr %16, align 8, !tbaa !3
  %59 = call i32 @get_x_center(ptr noundef %58)
  %60 = load i32, ptr %7, align 4, !tbaa !7
  %61 = sub nsw i32 %59, %60
  store i32 %61, ptr %18, align 4, !tbaa !7
  %62 = load ptr, ptr %16, align 8, !tbaa !3
  %63 = call i32 @get_y_center(ptr noundef %62)
  %64 = load i32, ptr %8, align 4, !tbaa !7
  %65 = sub nsw i32 %63, %64
  store i32 %65, ptr %19, align 4, !tbaa !7
  %66 = load i32, ptr %18, align 4, !tbaa !7
  %67 = icmp sge i32 %66, 0
  br i1 %67, label %68, label %69

68:                                               ; preds = %57
  store i32 4, ptr %17, align 4
  br label %204

69:                                               ; preds = %57
  %70 = load i32, ptr %19, align 4, !tbaa !7
  %71 = icmp sgt i32 %70, 0
  br i1 %71, label %72, label %74

72:                                               ; preds = %69
  %73 = load i32, ptr %19, align 4, !tbaa !7
  br label %77

74:                                               ; preds = %69
  %75 = load i32, ptr %19, align 4, !tbaa !7
  %76 = sub nsw i32 0, %75
  br label %77

77:                                               ; preds = %74, %72
  %78 = phi i32 [ %73, %72 ], [ %76, %74 ]
  %79 = load i32, ptr %13, align 4, !tbaa !7
  %80 = icmp sgt i32 %78, %79
  br i1 %80, label %81, label %82

81:                                               ; preds = %77
  store i32 4, ptr %17, align 4
  br label %204

82:                                               ; preds = %77
  br label %180

83:                                               ; preds = %55
  %84 = load ptr, ptr %16, align 8, !tbaa !3
  %85 = call i32 @get_x_center(ptr noundef %84)
  %86 = load i32, ptr %7, align 4, !tbaa !7
  %87 = sub nsw i32 %85, %86
  store i32 %87, ptr %18, align 4, !tbaa !7
  %88 = load ptr, ptr %16, align 8, !tbaa !3
  %89 = call i32 @get_y_center(ptr noundef %88)
  %90 = load i32, ptr %8, align 4, !tbaa !7
  %91 = sub nsw i32 %89, %90
  store i32 %91, ptr %19, align 4, !tbaa !7
  %92 = load i32, ptr %18, align 4, !tbaa !7
  %93 = icmp sle i32 %92, 0
  br i1 %93, label %94, label %95

94:                                               ; preds = %83
  store i32 4, ptr %17, align 4
  br label %204

95:                                               ; preds = %83
  %96 = load i32, ptr %19, align 4, !tbaa !7
  %97 = icmp sgt i32 %96, 0
  br i1 %97, label %98, label %100

98:                                               ; preds = %95
  %99 = load i32, ptr %19, align 4, !tbaa !7
  br label %103

100:                                              ; preds = %95
  %101 = load i32, ptr %19, align 4, !tbaa !7
  %102 = sub nsw i32 0, %101
  br label %103

103:                                              ; preds = %100, %98
  %104 = phi i32 [ %99, %98 ], [ %102, %100 ]
  %105 = load i32, ptr %13, align 4, !tbaa !7
  %106 = icmp sgt i32 %104, %105
  br i1 %106, label %107, label %108

107:                                              ; preds = %103
  store i32 4, ptr %17, align 4
  br label %204

108:                                              ; preds = %103
  br label %180

109:                                              ; preds = %55
  %110 = load ptr, ptr %16, align 8, !tbaa !3
  %111 = call i32 @get_x_center(ptr noundef %110)
  %112 = load i32, ptr %7, align 4, !tbaa !7
  %113 = sub nsw i32 %111, %112
  store i32 %113, ptr %18, align 4, !tbaa !7
  %114 = load ptr, ptr %16, align 8, !tbaa !3
  %115 = call i32 @get_y_center(ptr noundef %114)
  %116 = load i32, ptr %8, align 4, !tbaa !7
  %117 = sub nsw i32 %115, %116
  store i32 %117, ptr %19, align 4, !tbaa !7
  %118 = load i32, ptr %19, align 4, !tbaa !7
  %119 = icmp sge i32 %118, 0
  br i1 %119, label %120, label %121

120:                                              ; preds = %109
  store i32 4, ptr %17, align 4
  br label %204

121:                                              ; preds = %109
  br label %180

122:                                              ; preds = %55
  %123 = load ptr, ptr %16, align 8, !tbaa !3
  %124 = call i32 @get_x_center(ptr noundef %123)
  %125 = load i32, ptr %7, align 4, !tbaa !7
  %126 = sub nsw i32 %124, %125
  store i32 %126, ptr %18, align 4, !tbaa !7
  %127 = load ptr, ptr %16, align 8, !tbaa !3
  %128 = call i32 @get_y_center(ptr noundef %127)
  %129 = load i32, ptr %8, align 4, !tbaa !7
  %130 = sub nsw i32 %128, %129
  store i32 %130, ptr %19, align 4, !tbaa !7
  %131 = load i32, ptr %19, align 4, !tbaa !7
  %132 = icmp sle i32 %131, 0
  br i1 %132, label %133, label %134

133:                                              ; preds = %122
  store i32 4, ptr %17, align 4
  br label %204

134:                                              ; preds = %122
  br label %180

135:                                              ; preds = %55
  %136 = load ptr, ptr %16, align 8, !tbaa !3
  %137 = call i32 @get_y_center(ptr noundef %136)
  %138 = load i32, ptr %8, align 4, !tbaa !7
  %139 = sub nsw i32 %137, %138
  store i32 %139, ptr %19, align 4, !tbaa !7
  %140 = load i32, ptr %19, align 4, !tbaa !7
  %141 = icmp sle i32 %140, 0
  br i1 %141, label %142, label %143

142:                                              ; preds = %135
  store i32 4, ptr %17, align 4
  br label %204

143:                                              ; preds = %135
  %144 = load ptr, ptr %16, align 8, !tbaa !3
  %145 = call i32 @lv_obj_get_x(ptr noundef %144)
  store i32 %145, ptr %18, align 4, !tbaa !7
  br label %180

146:                                              ; preds = %55
  %147 = load ptr, ptr %16, align 8, !tbaa !3
  %148 = call i32 @get_y_center(ptr noundef %147)
  %149 = load i32, ptr %8, align 4, !tbaa !7
  %150 = sub nsw i32 %148, %149
  store i32 %150, ptr %19, align 4, !tbaa !7
  %151 = load i32, ptr %19, align 4, !tbaa !7
  %152 = icmp sge i32 %151, 0
  br i1 %152, label %153, label %154

153:                                              ; preds = %146
  store i32 4, ptr %17, align 4
  br label %204

154:                                              ; preds = %146
  %155 = load ptr, ptr %4, align 8, !tbaa !3
  %156 = getelementptr inbounds nuw %struct._lv_obj_t, ptr %155, i32 0, i32 5
  %157 = getelementptr inbounds nuw %struct.lv_area_t, ptr %156, i32 0, i32 2
  %158 = load i32, ptr %157, align 8, !tbaa !16
  %159 = load ptr, ptr %16, align 8, !tbaa !3
  %160 = getelementptr inbounds nuw %struct._lv_obj_t, ptr %159, i32 0, i32 5
  %161 = getelementptr inbounds nuw %struct.lv_area_t, ptr %160, i32 0, i32 2
  %162 = load i32, ptr %161, align 8, !tbaa !16
  %163 = sub nsw i32 %158, %162
  store i32 %163, ptr %18, align 4, !tbaa !7
  br label %180

164:                                              ; preds = %55
  %165 = load ptr, ptr %16, align 8, !tbaa !3
  %166 = call i32 @get_x_center(ptr noundef %165)
  %167 = load i32, ptr %7, align 4, !tbaa !7
  %168 = sub nsw i32 %166, %167
  store i32 %168, ptr %18, align 4, !tbaa !7
  %169 = load ptr, ptr %16, align 8, !tbaa !3
  %170 = call i32 @lv_obj_get_y(ptr noundef %169)
  store i32 %170, ptr %19, align 4, !tbaa !7
  br label %180

171:                                              ; preds = %55
  %172 = load ptr, ptr %16, align 8, !tbaa !3
  %173 = call i32 @get_x_center(ptr noundef %172)
  %174 = load i32, ptr %7, align 4, !tbaa !7
  %175 = sub nsw i32 %173, %174
  store i32 %175, ptr %18, align 4, !tbaa !7
  %176 = load i32, ptr %14, align 4, !tbaa !7
  %177 = load ptr, ptr %16, align 8, !tbaa !3
  %178 = call i32 @lv_obj_get_y(ptr noundef %177)
  %179 = sub nsw i32 %176, %178
  store i32 %179, ptr %19, align 4, !tbaa !7
  br label %180

180:                                              ; preds = %171, %55, %164, %154, %143, %134, %121, %108, %82
  %181 = load ptr, ptr %10, align 8, !tbaa !3
  %182 = icmp eq ptr %181, null
  br i1 %182, label %199, label %183

183:                                              ; preds = %180
  %184 = load i32, ptr %19, align 4, !tbaa !7
  %185 = load i32, ptr %19, align 4, !tbaa !7
  %186 = mul nsw i32 %184, %185
  %187 = load i32, ptr %18, align 4, !tbaa !7
  %188 = load i32, ptr %18, align 4, !tbaa !7
  %189 = mul nsw i32 %187, %188
  %190 = add nsw i32 %186, %189
  %191 = load i32, ptr %12, align 4, !tbaa !7
  %192 = load i32, ptr %12, align 4, !tbaa !7
  %193 = mul nsw i32 %191, %192
  %194 = load i32, ptr %11, align 4, !tbaa !7
  %195 = load i32, ptr %11, align 4, !tbaa !7
  %196 = mul nsw i32 %194, %195
  %197 = add nsw i32 %193, %196
  %198 = icmp slt i32 %190, %197
  br i1 %198, label %199, label %203

199:                                              ; preds = %183, %180
  %200 = load ptr, ptr %16, align 8, !tbaa !3
  store ptr %200, ptr %10, align 8, !tbaa !3
  %201 = load i32, ptr %18, align 4, !tbaa !7
  store i32 %201, ptr %11, align 4, !tbaa !7
  %202 = load i32, ptr %19, align 4, !tbaa !7
  store i32 %202, ptr %12, align 4, !tbaa !7
  br label %203

203:                                              ; preds = %199, %183
  store i32 0, ptr %17, align 4
  br label %204

204:                                              ; preds = %203, %153, %142, %133, %120, %107, %94, %81, %68
  call void @llvm.lifetime.end.p0(i64 4, ptr %19) #3
  call void @llvm.lifetime.end.p0(i64 4, ptr %18) #3
  br label %205

205:                                              ; preds = %204, %54, %48
  call void @llvm.lifetime.end.p0(i64 8, ptr %16) #3
  %206 = load i32, ptr %17, align 4
  switch i32 %206, label %213 [
    i32 0, label %207
    i32 4, label %208
  ]

207:                                              ; preds = %205
  br label %208

208:                                              ; preds = %207, %205
  %209 = load i32, ptr %15, align 4, !tbaa !7
  %210 = add i32 %209, 1
  store i32 %210, ptr %15, align 4, !tbaa !7
  br label %37, !llvm.loop !20

211:                                              ; preds = %37
  %212 = load ptr, ptr %10, align 8, !tbaa !3
  store i32 1, ptr %17, align 4
  call void @llvm.lifetime.end.p0(i64 4, ptr %15) #3
  call void @llvm.lifetime.end.p0(i64 4, ptr %14) #3
  call void @llvm.lifetime.end.p0(i64 4, ptr %13) #3
  call void @llvm.lifetime.end.p0(i64 4, ptr %12) #3
  call void @llvm.lifetime.end.p0(i64 4, ptr %11) #3
  call void @llvm.lifetime.end.p0(i64 8, ptr %10) #3
  call void @llvm.lifetime.end.p0(i64 4, ptr %9) #3
  call void @llvm.lifetime.end.p0(i64 4, ptr %8) #3
  call void @llvm.lifetime.end.p0(i64 4, ptr %7) #3
  ret ptr %212

213:                                              ; preds = %205
  unreachable
}