; Function Attrs: nounwind uwtable
define internal fastcc ptr @find_chid(ptr noundef %0, ptr noundef %1, i32 noundef range(i32 0, 8) %2) unnamed_addr #0 {
  %4 = getelementptr inbounds nuw i8, ptr %1, i64 40
  %5 = load i32, ptr %4, align 8, !tbaa !15
  %6 = tail call i32 @lv_area_get_width(ptr noundef nonnull %4) #4
  %.neg98 = sdiv i32 %6, -2
  %.neg99 = sub i32 %.neg98, %5
  %7 = getelementptr inbounds nuw i8, ptr %1, i64 44
  %8 = load i32, ptr %7, align 4, !tbaa !19
  %9 = tail call i32 @lv_area_get_height(ptr noundef nonnull %4) #4
  %.neg = sdiv i32 %9, -2
  %.neg100 = sub i32 %.neg, %8
  %10 = tail call i32 @lv_obj_get_child_count(ptr noundef %0) #4
  %11 = tail call i32 @lv_obj_get_height(ptr noundef %1) #4
  %12 = sdiv i32 %11, 2
  %13 = tail call i32 @lv_obj_get_height(ptr noundef %0) #4
  %14 = tail call i32 @lv_obj_get_scroll_top(ptr noundef %0) #4
  %15 = add nsw i32 %14, %13
  %16 = tail call i32 @lv_obj_get_scroll_bottom(ptr noundef %0) #4
  %17 = add nsw i32 %15, %16
  %.not = icmp eq i32 %10, 0
  br i1 %.not, label %._crit_edge, label %.lr.ph

.lr.ph:                                           ; preds = %3
  %18 = getelementptr inbounds nuw i8, ptr %0, i64 48
  br label %19

19:                                               ; preds = %.lr.ph, %obj_is_focusable.exit.thread
  %.07397 = phi ptr [ null, %.lr.ph ], [ %.1, %obj_is_focusable.exit.thread ]
  %.07496 = phi i32 [ 0, %.lr.ph ], [ %134, %obj_is_focusable.exit.thread ]
  %.07595 = phi i32 [ 536870911, %.lr.ph ], [ %.176, %obj_is_focusable.exit.thread ]
  %.07994 = phi i32 [ 536870911, %.lr.ph ], [ %.180, %obj_is_focusable.exit.thread ]
  %20 = tail call ptr @lv_obj_get_child(ptr noundef %0, i32 noundef %.07496) #4
  %21 = icmp eq ptr %20, %1
  br i1 %21, label %obj_is_focusable.exit.thread, label %22

22:                                               ; preds = %19
  %23 = tail call zeroext i1 @lv_obj_has_flag(ptr noundef %20, i32 noundef 1) #4
  br i1 %23, label %obj_is_focusable.exit.thread, label %obj_is_focusable.exit

obj_is_focusable.exit:                            ; preds = %22
  %24 = tail call zeroext i1 @lv_obj_has_flag(ptr noundef %20, i32 noundef 6) #4
  br i1 %24, label %25, label %obj_is_focusable.exit.thread

25:                                               ; preds = %obj_is_focusable.exit
  %26 = getelementptr inbounds nuw i8, ptr %20, i64 40
  switch i32 %2, label %default.unreachable101 [
    i32 0, label %27
    i32 1, label %43
    i32 2, label %59
    i32 3, label %72
    i32 4, label %85
    i32 5, label %95
    i32 6, label %108
    i32 7, label %115
  ]

27:                                               ; preds = %25
  %28 = load i32, ptr %26, align 8, !tbaa !15
  %29 = tail call i32 @lv_area_get_width(ptr noundef nonnull %26) #4
  %30 = sdiv i32 %29, 2
  %31 = add i32 %28, %.neg99
  %32 = add i32 %31, %30
  %33 = getelementptr inbounds nuw i8, ptr %20, i64 44
  %34 = load i32, ptr %33, align 4, !tbaa !19
  %35 = tail call i32 @lv_area_get_height(ptr noundef nonnull %26) #4
  %36 = icmp sgt i32 %32, -1
  br i1 %36, label %obj_is_focusable.exit.thread, label %37

37:                                               ; preds = %27
  %38 = sdiv i32 %35, 2
  %39 = add i32 %34, %.neg100
  %40 = add i32 %39, %38
  %41 = tail call i32 @llvm.abs.i32(i32 %40, i1 true)
  %42 = icmp sgt i32 %41, %12
  br i1 %42, label %obj_is_focusable.exit.thread, label %123

43:                                               ; preds = %25
  %44 = load i32, ptr %26, align 8, !tbaa !15
  %45 = tail call i32 @lv_area_get_width(ptr noundef nonnull %26) #4
  %46 = sdiv i32 %45, 2
  %47 = add i32 %44, %.neg99
  %48 = add i32 %47, %46
  %49 = getelementptr inbounds nuw i8, ptr %20, i64 44
  %50 = load i32, ptr %49, align 4, !tbaa !19
  %51 = tail call i32 @lv_area_get_height(ptr noundef nonnull %26) #4
  %52 = icmp slt i32 %48, 1
  br i1 %52, label %obj_is_focusable.exit.thread, label %53

53:                                               ; preds = %43
  %54 = sdiv i32 %51, 2
  %55 = add i32 %50, %.neg100
  %56 = add i32 %55, %54
  %57 = tail call i32 @llvm.abs.i32(i32 %56, i1 true)
  %58 = icmp sgt i32 %57, %12
  br i1 %58, label %obj_is_focusable.exit.thread, label %123

59:                                               ; preds = %25
  %60 = load i32, ptr %26, align 8, !tbaa !15
  %61 = tail call i32 @lv_area_get_width(ptr noundef nonnull %26) #4
  %62 = sdiv i32 %61, 2
  %63 = add i32 %60, %.neg99
  %64 = add i32 %63, %62
  %65 = getelementptr inbounds nuw i8, ptr %20, i64 44
  %66 = load i32, ptr %65, align 4, !tbaa !19
  %67 = tail call i32 @lv_area_get_height(ptr noundef nonnull %26) #4
  %68 = sdiv i32 %67, 2
  %69 = add i32 %66, %.neg100
  %70 = add i32 %69, %68
  %71 = icmp sgt i32 %70, -1
  br i1 %71, label %obj_is_focusable.exit.thread, label %123

72:                                               ; preds = %25
  %73 = load i32, ptr %26, align 8, !tbaa !15
  %74 = tail call i32 @lv_area_get_width(ptr noundef nonnull %26) #4
  %75 = sdiv i32 %74, 2
  %76 = add i32 %73, %.neg99
  %77 = add i32 %76, %75
  %78 = getelementptr inbounds nuw i8, ptr %20, i64 44
  %79 = load i32, ptr %78, align 4, !tbaa !19
  %80 = tail call i32 @lv_area_get_height(ptr noundef nonnull %26) #4
  %81 = sdiv i32 %80, 2
  %82 = add i32 %79, %.neg100
  %83 = add i32 %82, %81
  %84 = icmp slt i32 %83, 1
  br i1 %84, label %obj_is_focusable.exit.thread, label %123

85:                                               ; preds = %25
  %86 = getelementptr inbounds nuw i8, ptr %20, i64 44
  %87 = load i32, ptr %86, align 4, !tbaa !19
  %88 = tail call i32 @lv_area_get_height(ptr noundef nonnull %26) #4
  %89 = sdiv i32 %88, 2
  %90 = add i32 %87, %.neg100
  %91 = add i32 %90, %89
  %92 = icmp slt i32 %91, 1
  br i1 %92, label %obj_is_focusable.exit.thread, label %93

93:                                               ; preds = %85
  %94 = tail call i32 @lv_obj_get_x(ptr noundef nonnull %20) #4
  br label %123

95:                                               ; preds = %25
  %96 = getelementptr inbounds nuw i8, ptr %20, i64 44
  %97 = load i32, ptr %96, align 4, !tbaa !19
  %98 = tail call i32 @lv_area_get_height(ptr noundef nonnull %26) #4
  %99 = sdiv i32 %98, 2
  %100 = add i32 %97, %.neg100
  %101 = add i32 %100, %99
  %102 = icmp sgt i32 %101, -1
  br i1 %102, label %obj_is_focusable.exit.thread, label %103

103:                                              ; preds = %95
  %104 = load i32, ptr %18, align 8, !tbaa !20
  %105 = getelementptr inbounds nuw i8, ptr %20, i64 48
  %106 = load i32, ptr %105, align 8, !tbaa !20
  %107 = sub nsw i32 %104, %106
  br label %123

108:                                              ; preds = %25
  %109 = load i32, ptr %26, align 8, !tbaa !15
  %110 = tail call i32 @lv_area_get_width(ptr noundef nonnull %26) #4
  %111 = sdiv i32 %110, 2
  %112 = add i32 %109, %.neg99
  %113 = add i32 %112, %111
  %114 = tail call i32 @lv_obj_get_y(ptr noundef %20) #4
  br label %123

115:                                              ; preds = %25
  %116 = load i32, ptr %26, align 8, !tbaa !15
  %117 = tail call i32 @lv_area_get_width(ptr noundef nonnull %26) #4
  %118 = sdiv i32 %117, 2
  %119 = add i32 %116, %.neg99
  %120 = add i32 %119, %118
  %121 = tail call i32 @lv_obj_get_y(ptr noundef %20) #4
  %122 = sub i32 %17, %121
  br label %123

default.unreachable101:                           ; preds = %25
  unreachable

123:                                              ; preds = %72, %59, %53, %37, %115, %108, %103, %93
  %.072 = phi i32 [ %120, %115 ], [ %113, %108 ], [ %107, %103 ], [ %94, %93 ], [ %77, %72 ], [ %64, %59 ], [ %48, %53 ], [ %32, %37 ]
  %.0 = phi i32 [ %122, %115 ], [ %114, %108 ], [ %101, %103 ], [ %91, %93 ], [ %83, %72 ], [ %70, %59 ], [ %56, %53 ], [ %40, %37 ]
  %124 = icmp eq ptr %.07397, null
  br i1 %124, label %133, label %125

125:                                              ; preds = %123
  %126 = mul nsw i32 %.0, %.0
  %127 = mul nsw i32 %.072, %.072
  %128 = add nuw nsw i32 %126, %127
  %129 = mul nsw i32 %.07994, %.07994
  %130 = mul nsw i32 %.07595, %.07595
  %131 = add nuw nsw i32 %130, %129
  %132 = icmp samesign ult i32 %128, %131
  br i1 %132, label %133, label %obj_is_focusable.exit.thread

133:                                              ; preds = %125, %123
  br label %obj_is_focusable.exit.thread

obj_is_focusable.exit.thread:                     ; preds = %22, %27, %37, %43, %53, %59, %72, %85, %95, %133, %125, %obj_is_focusable.exit, %19
  %.180 = phi i32 [ %.07994, %19 ], [ %.07994, %obj_is_focusable.exit ], [ %.07994, %27 ], [ %.07994, %37 ], [ %.07994, %43 ], [ %.07994, %53 ], [ %.07994, %59 ], [ %.07994, %72 ], [ %.07994, %85 ], [ %.07994, %95 ], [ %.0, %133 ], [ %.07994, %125 ], [ %.07994, %22 ]
  %.176 = phi i32 [ %.07595, %19 ], [ %.07595, %obj_is_focusable.exit ], [ %.07595, %27 ], [ %.07595, %37 ], [ %.07595, %43 ], [ %.07595, %53 ], [ %.07595, %59 ], [ %.07595, %72 ], [ %.07595, %85 ], [ %.07595, %95 ], [ %.072, %133 ], [ %.07595, %125 ], [ %.07595, %22 ]
  %.1 = phi ptr [ %.07397, %19 ], [ %.07397, %obj_is_focusable.exit ], [ %.07397, %27 ], [ %.07397, %37 ], [ %.07397, %43 ], [ %.07397, %53 ], [ %.07397, %59 ], [ %.07397, %72 ], [ %.07397, %85 ], [ %.07397, %95 ], [ %20, %133 ], [ %.07397, %125 ], [ %.07397, %22 ]
  %134 = add nuw i32 %.07496, 1
  %exitcond.not = icmp eq i32 %134, %10
  br i1 %exitcond.not, label %._crit_edge, label %19, !llvm.loop !21

._crit_edge:                                      ; preds = %obj_is_focusable.exit.thread, %3
  %.073.lcssa = phi ptr [ null, %3 ], [ %.1, %obj_is_focusable.exit.thread ]
  ret ptr %.073.lcssa
}